
./testcase/bin/matrix-mul:     file format elf32-i386


Disassembly of section .text:

08049000 <start>:
 8049000:	e9 00 00 00 00       	jmp    8049005 <main>

08049005 <main>:
 8049005:	55                   	push   %ebp
 8049006:	89 e5                	mov    %esp,%ebp
 8049008:	56                   	push   %esi
 8049009:	53                   	push   %ebx
 804900a:	83 ec 10             	sub    $0x10,%esp
 804900d:	e8 6d 01 00 00       	call   804917f <__x86.get_pc_thunk.dx>
 8049012:	81 c2 ee 2f 00 00    	add    $0x2fee,%edx
 8049018:	c7 45 f4 00 00 00 00 	movl   $0x0,-0xc(%ebp)
 804901f:	e9 3f 01 00 00       	jmp    8049163 <main+0x15e>
 8049024:	c7 45 f0 00 00 00 00 	movl   $0x0,-0x10(%ebp)
 804902b:	e9 26 01 00 00       	jmp    8049156 <main+0x151>
 8049030:	c7 c1 e0 94 06 08    	mov    $0x80694e0,%ecx
 8049036:	8b 5d f4             	mov    -0xc(%ebp),%ebx
 8049039:	89 d8                	mov    %ebx,%eax
 804903b:	c1 e0 02             	shl    $0x2,%eax
 804903e:	01 d8                	add    %ebx,%eax
 8049040:	8d 1c 85 00 00 00 00 	lea    0x0(,%eax,4),%ebx
 8049047:	01 d8                	add    %ebx,%eax
 8049049:	c1 e0 02             	shl    $0x2,%eax
 804904c:	8b 5d f0             	mov    -0x10(%ebp),%ebx
 804904f:	01 d8                	add    %ebx,%eax
 8049051:	c7 04 81 00 00 00 00 	movl   $0x0,(%ecx,%eax,4)
 8049058:	c7 45 ec 00 00 00 00 	movl   $0x0,-0x14(%ebp)
 804905f:	e9 95 00 00 00       	jmp    80490f9 <main+0xf4>
 8049064:	c7 c1 e0 94 06 08    	mov    $0x80694e0,%ecx
 804906a:	8b 5d f4             	mov    -0xc(%ebp),%ebx
 804906d:	89 d8                	mov    %ebx,%eax
 804906f:	c1 e0 02             	shl    $0x2,%eax
 8049072:	01 d8                	add    %ebx,%eax
 8049074:	8d 1c 85 00 00 00 00 	lea    0x0(,%eax,4),%ebx
 804907b:	01 d8                	add    %ebx,%eax
 804907d:	c1 e0 02             	shl    $0x2,%eax
 8049080:	8b 5d f0             	mov    -0x10(%ebp),%ebx
 8049083:	01 d8                	add    %ebx,%eax
 8049085:	8b 1c 81             	mov    (%ecx,%eax,4),%ebx
 8049088:	8b 4d f4             	mov    -0xc(%ebp),%ecx
 804908b:	89 c8                	mov    %ecx,%eax
 804908d:	c1 e0 02             	shl    $0x2,%eax
 8049090:	01 c8                	add    %ecx,%eax
 8049092:	8d 0c 85 00 00 00 00 	lea    0x0(,%eax,4),%ecx
 8049099:	01 c8                	add    %ecx,%eax
 804909b:	c1 e0 02             	shl    $0x2,%eax
 804909e:	8b 4d ec             	mov    -0x14(%ebp),%ecx
 80490a1:	01 c8                	add    %ecx,%eax
 80490a3:	8b b4 82 20 00 00 00 	mov    0x20(%edx,%eax,4),%esi
 80490aa:	8b 4d ec             	mov    -0x14(%ebp),%ecx
 80490ad:	89 c8                	mov    %ecx,%eax
 80490af:	c1 e0 02             	shl    $0x2,%eax
 80490b2:	01 c8                	add    %ecx,%eax
 80490b4:	8d 0c 85 00 00 00 00 	lea    0x0(,%eax,4),%ecx
 80490bb:	01 c8                	add    %ecx,%eax
 80490bd:	c1 e0 02             	shl    $0x2,%eax
 80490c0:	8b 4d f0             	mov    -0x10(%ebp),%ecx
 80490c3:	01 c8                	add    %ecx,%eax
 80490c5:	8b 84 82 60 9c 00 00 	mov    0x9c60(%edx,%eax,4),%eax
 80490cc:	0f af c6             	imul   %esi,%eax
 80490cf:	8d 34 03             	lea    (%ebx,%eax,1),%esi
 80490d2:	c7 c1 e0 94 06 08    	mov    $0x80694e0,%ecx
 80490d8:	8b 5d f4             	mov    -0xc(%ebp),%ebx
 80490db:	89 d8                	mov    %ebx,%eax
 80490dd:	c1 e0 02             	shl    $0x2,%eax
 80490e0:	01 d8                	add    %ebx,%eax
 80490e2:	8d 1c 85 00 00 00 00 	lea    0x0(,%eax,4),%ebx
 80490e9:	01 d8                	add    %ebx,%eax
 80490eb:	c1 e0 02             	shl    $0x2,%eax
 80490ee:	8b 5d f0             	mov    -0x10(%ebp),%ebx
 80490f1:	01 d8                	add    %ebx,%eax
 80490f3:	89 34 81             	mov    %esi,(%ecx,%eax,4)
 80490f6:	ff 45 ec             	incl   -0x14(%ebp)
 80490f9:	83 7d ec 63          	cmpl   $0x63,-0x14(%ebp)
 80490fd:	0f 8e 61 ff ff ff    	jle    8049064 <main+0x5f>
 8049103:	c7 c1 e0 94 06 08    	mov    $0x80694e0,%ecx
 8049109:	8b 5d f4             	mov    -0xc(%ebp),%ebx
 804910c:	89 d8                	mov    %ebx,%eax
 804910e:	c1 e0 02             	shl    $0x2,%eax
 8049111:	01 d8                	add    %ebx,%eax
 8049113:	8d 1c 85 00 00 00 00 	lea    0x0(,%eax,4),%ebx
 804911a:	01 d8                	add    %ebx,%eax
 804911c:	c1 e0 02             	shl    $0x2,%eax
 804911f:	8b 5d f0             	mov    -0x10(%ebp),%ebx
 8049122:	01 d8                	add    %ebx,%eax
 8049124:	8b 1c 81             	mov    (%ecx,%eax,4),%ebx
 8049127:	8b 4d f4             	mov    -0xc(%ebp),%ecx
 804912a:	89 c8                	mov    %ecx,%eax
 804912c:	c1 e0 02             	shl    $0x2,%eax
 804912f:	01 c8                	add    %ecx,%eax
 8049131:	8d 0c 85 00 00 00 00 	lea    0x0(,%eax,4),%ecx
 8049138:	01 c8                	add    %ecx,%eax
 804913a:	c1 e0 02             	shl    $0x2,%eax
 804913d:	8b 4d f0             	mov    -0x10(%ebp),%ecx
 8049140:	01 c8                	add    %ecx,%eax
 8049142:	8b 84 82 a0 38 01 00 	mov    0x138a0(%edx,%eax,4),%eax
 8049149:	39 c3                	cmp    %eax,%ebx
 804914b:	74 06                	je     8049153 <main+0x14e>
 804914d:	b8 01 00 00 00       	mov    $0x1,%eax
 8049152:	82 ff 45             	cmp    $0x45,%bh
 8049155:	f0 83 7d f0 63       	lock cmpl $0x63,-0x10(%ebp)
 804915a:	0f 8e d0 fe ff ff    	jle    8049030 <main+0x2b>
 8049160:	ff 45 f4             	incl   -0xc(%ebp)
 8049163:	83 7d f4 63          	cmpl   $0x63,-0xc(%ebp)
 8049167:	0f 8e b7 fe ff ff    	jle    8049024 <main+0x1f>
 804916d:	b8 00 00 00 00       	mov    $0x0,%eax
 8049172:	82 b8 00 00 00 00 83 	cmpb   $0x83,0x0(%eax)
 8049179:	c4 10                	les    (%eax),%edx
 804917b:	5b                   	pop    %ebx
 804917c:	5e                   	pop    %esi
 804917d:	5d                   	pop    %ebp
 804917e:	c3                   	ret    

0804917f <__x86.get_pc_thunk.dx>:
 804917f:	8b 14 24             	mov    (%esp),%edx
 8049182:	c3                   	ret    
